; Function Attrs: mustprogress uwtable
define dso_local void @_ZN24btMultiBodyDynamicsWorld12buildIslandsEv(ptr noundef nonnull align 8 dereferenceable(848) %0) local_unnamed_addr #0 align 2 {
  %2 = getelementptr inbounds nuw i8, ptr %0, i64 328
  %3 = load ptr, ptr %2, align 8, !tbaa !76
  %4 = getelementptr inbounds nuw i8, ptr %0, i64 40
  %5 = load ptr, ptr %4, align 8, !tbaa !104
  %6 = getelementptr inbounds nuw i8, ptr %0, i64 616
  %7 = load ptr, ptr %6, align 8, !tbaa !153
  tail call void @_ZN25btSimulationIslandManager22buildAndProcessIslandsEP12btDispatcherP16btCollisionWorldPNS_14IslandCallbackE(ptr noundef nonnull align 8 dereferenceable(105) %3, ptr noundef %5, ptr noundef nonnull %0, ptr noundef %7)
  ret void
}